target datalayout = "e-m:e-p270:32:32-p271:32:32-p272:64:64-i64:64-i128:128-f80:128-n8:16:32:64-S128"
target triple = "x86_64-pc-linux-gnu"

%struct._zend_output_globals = type { %struct._zend_stack, ptr, ptr, ptr, i32, i32 }
%struct._zend_stack = type { i32, i32, i32, ptr }
%struct._zend_refcounted_h = type { i32, %union.anon }
%union.anon = type { i32 }
%struct._zend_string = type { %struct._zend_refcounted_h, i64, i64, [1 x i8] }
%struct._php_output_context = type { i32, %struct._php_output_buffer, %struct._php_output_buffer }
%struct._php_output_buffer = type { ptr, i64, i64, i32 }
%struct._php_output_handler = type { ptr, i32, i32, i64, %struct._php_output_buffer, ptr, ptr, %union.anon.2 }
%union.anon.2 = type { ptr }

@output_globals = dso_local global %struct._zend_output_globals zeroinitializer, align 8
@php_output_direct = internal global ptr @php_output_stderr, align 8
@.str = private unnamed_addr constant [15 x i8] c"ref.outcontrol\00", align 1
@.str.17 = private unnamed_addr constant [37 x i8] c"Failed to %s buffer. No buffer to %s\00", align 1
@.str.18 = private unnamed_addr constant [8 x i8] c"discard\00", align 1
@.str.19 = private unnamed_addr constant [5 x i8] c"send\00", align 1
@.str.20 = private unnamed_addr constant [31 x i8] c"Failed to %s buffer of %s (%d)\00", align 1

; Function Attrs: inlinehint nounwind uwtable
define internal void @php_output_context_dtor(ptr noundef %0) #1 {
  %2 = alloca ptr, align 8
  store ptr %0, ptr %2, align 8, !tbaa !69
  %3 = load ptr, ptr %2, align 8, !tbaa !69
  %4 = getelementptr inbounds nuw %struct._php_output_context, ptr %3, i32 0, i32 1
  %5 = getelementptr inbounds nuw %struct._php_output_buffer, ptr %4, i32 0, i32 3
  %6 = load i32, ptr %5, align 8
  %7 = and i32 %6, 1
  %8 = icmp ne i32 %7, 0
  br i1 %8, label %9, label %23

9:                                                ; preds = %1
  %10 = load ptr, ptr %2, align 8, !tbaa !69
  %11 = getelementptr inbounds nuw %struct._php_output_context, ptr %10, i32 0, i32 1
  %12 = getelementptr inbounds nuw %struct._php_output_buffer, ptr %11, i32 0, i32 0
  %13 = load ptr, ptr %12, align 8, !tbaa !61
  %14 = icmp ne ptr %13, null
  br i1 %14, label %15, label %23

15:                                               ; preds = %9
  %16 = load ptr, ptr %2, align 8, !tbaa !69
  %17 = getelementptr inbounds nuw %struct._php_output_context, ptr %16, i32 0, i32 1
  %18 = getelementptr inbounds nuw %struct._php_output_buffer, ptr %17, i32 0, i32 0
  %19 = load ptr, ptr %18, align 8, !tbaa !61
  call void @_efree(ptr noundef %19)
  %20 = load ptr, ptr %2, align 8, !tbaa !69
  %21 = getelementptr inbounds nuw %struct._php_output_context, ptr %20, i32 0, i32 1
  %22 = getelementptr inbounds nuw %struct._php_output_buffer, ptr %21, i32 0, i32 0
  store ptr null, ptr %22, align 8, !tbaa !61
  br label %23

23:                                               ; preds = %15, %9, %1
  %24 = load ptr, ptr %2, align 8, !tbaa !69
  %25 = getelementptr inbounds nuw %struct._php_output_context, ptr %24, i32 0, i32 2
  %26 = getelementptr inbounds nuw %struct._php_output_buffer, ptr %25, i32 0, i32 3
  %27 = load i32, ptr %26, align 8
  %28 = and i32 %27, 1
  %29 = icmp ne i32 %28, 0
  br i1 %29, label %30, label %44

30:                                               ; preds = %23
  %31 = load ptr, ptr %2, align 8, !tbaa !69
  %32 = getelementptr inbounds nuw %struct._php_output_context, ptr %31, i32 0, i32 2
  %33 = getelementptr inbounds nuw %struct._php_output_buffer, ptr %32, i32 0, i32 0
  %34 = load ptr, ptr %33, align 8, !tbaa !67
  %35 = icmp ne ptr %34, null
  br i1 %35, label %36, label %44

36:                                               ; preds = %30
  %37 = load ptr, ptr %2, align 8, !tbaa !69
  %38 = getelementptr inbounds nuw %struct._php_output_context, ptr %37, i32 0, i32 2
  %39 = getelementptr inbounds nuw %struct._php_output_buffer, ptr %38, i32 0, i32 0
  %40 = load ptr, ptr %39, align 8, !tbaa !67
  call void @_efree(ptr noundef %40)
  %41 = load ptr, ptr %2, align 8, !tbaa !69
  %42 = getelementptr inbounds nuw %struct._php_output_context, ptr %41, i32 0, i32 2
  %43 = getelementptr inbounds nuw %struct._php_output_buffer, ptr %42, i32 0, i32 0
  store ptr null, ptr %43, align 8, !tbaa !67
  br label %44

44:                                               ; preds = %36, %30, %23
  ret void
}

; Function Attrs: nounwind uwtable
define dso_local void @php_output_handler_free(ptr noundef %0) #0 {
  %2 = alloca ptr, align 8
  store ptr %0, ptr %2, align 8, !tbaa !27
  %3 = load ptr, ptr %2, align 8, !tbaa !27
  %4 = load ptr, ptr %3, align 8, !tbaa !55
  %5 = icmp ne ptr %4, null
  br i1 %5, label %6, label %12

6:                                                ; preds = %1
  %7 = load ptr, ptr %2, align 8, !tbaa !27
  %8 = load ptr, ptr %7, align 8, !tbaa !55
  call void @php_output_handler_dtor(ptr noundef %8)
  %9 = load ptr, ptr %2, align 8, !tbaa !27
  %10 = load ptr, ptr %9, align 8, !tbaa !55
  call void @_efree(ptr noundef %10)
  %11 = load ptr, ptr %2, align 8, !tbaa !27
  store ptr null, ptr %11, align 8, !tbaa !55
  br label %12

12:                                               ; preds = %6, %1
  ret void
}

; Function Attrs: nounwind uwtable
define dso_local i64 @php_output_write(ptr noundef %0, i64 noundef %1) #0 {
  %3 = alloca i64, align 8
  %4 = alloca ptr, align 8
  %5 = alloca i64, align 8
  store ptr %0, ptr %4, align 8, !tbaa !15
  store i64 %1, ptr %5, align 8, !tbaa !17
  %6 = load i32, ptr getelementptr inbounds nuw (%struct._zend_output_globals, ptr @output_globals, i32 0, i32 5), align 4, !tbaa !21
  %7 = and i32 %6, 1048576
  %8 = icmp ne i32 %7, 0
  br i1 %8, label %9, label %13

9:                                                ; preds = %2
  %10 = load ptr, ptr %4, align 8, !tbaa !15
  %11 = load i64, ptr %5, align 8, !tbaa !17
  call void @php_output_op(i32 noundef 0, ptr noundef %10, i64 noundef %11)
  %12 = load i64, ptr %5, align 8, !tbaa !17
  store i64 %12, ptr %3, align 8
  br label %23

13:                                               ; preds = %2
  %14 = load i32, ptr getelementptr inbounds nuw (%struct._zend_output_globals, ptr @output_globals, i32 0, i32 5), align 4, !tbaa !21
  %15 = and i32 %14, 2
  %16 = icmp ne i32 %15, 0
  br i1 %16, label %17, label %18

17:                                               ; preds = %13
  store i64 0, ptr %3, align 8
  br label %23

18:                                               ; preds = %13
  %19 = load ptr, ptr @php_output_direct, align 8, !tbaa !4
  %20 = load ptr, ptr %4, align 8, !tbaa !15
  %21 = load i64, ptr %5, align 8, !tbaa !17
  %22 = call i64 %19(ptr noundef %20, i64 noundef %21)
  store i64 %22, ptr %3, align 8
  br label %23

23:                                               ; preds = %18, %17, %9
  %24 = load i64, ptr %3, align 8
  ret i64 %24
}

; Function Attrs: inlinehint nounwind uwtable
define internal void @php_output_context_init(ptr noundef %0, i32 noundef %1) #1 {
  %3 = alloca ptr, align 8
  %4 = alloca i32, align 4
  store ptr %0, ptr %3, align 8, !tbaa !69
  store i32 %1, ptr %4, align 4, !tbaa !57
  %5 = load ptr, ptr %3, align 8, !tbaa !69
  call void @llvm.memset.p0.i64(ptr align 8 %5, i8 0, i64 72, i1 false)
  %6 = load i32, ptr %4, align 4, !tbaa !57
  %7 = load ptr, ptr %3, align 8, !tbaa !69
  %8 = getelementptr inbounds nuw %struct._php_output_context, ptr %7, i32 0, i32 0
  store i32 %6, ptr %8, align 8, !tbaa !71
  ret void
}

; Function Attrs: nounwind uwtable
define internal i32 @php_output_stack_pop(i32 noundef %0) #0 {
  %2 = alloca i32, align 4
  %3 = alloca i32, align 4
  %4 = alloca %struct._php_output_context, align 8
  %5 = alloca ptr, align 8
  %6 = alloca ptr, align 8
  %7 = alloca i32, align 4
  store i32 %0, ptr %3, align 4, !tbaa !57
  call void @llvm.lifetime.start.p0(i64 72, ptr %4) #15
  call void @llvm.lifetime.start.p0(i64 8, ptr %5) #15
  call void @llvm.lifetime.start.p0(i64 8, ptr %6) #15
  %8 = load ptr, ptr getelementptr inbounds nuw (%struct._zend_output_globals, ptr @output_globals, i32 0, i32 1), align 8, !tbaa !29
  store ptr %8, ptr %6, align 8, !tbaa !55
  %9 = load ptr, ptr %6, align 8, !tbaa !55
  %10 = icmp ne ptr %9, null
  br i1 %10, label %25, label %11

11:                                               ; preds = %1
  %12 = load i32, ptr %3, align 4, !tbaa !57
  %13 = and i32 %12, 256
  %14 = icmp ne i32 %13, 0
  br i1 %14, label %24, label %15

15:                                               ; preds = %11
  %16 = load i32, ptr %3, align 4, !tbaa !57
  %17 = and i32 %16, 16
  %18 = icmp ne i32 %17, 0
  %19 = select i1 %18, ptr @.str.18, ptr @.str.19
  %20 = load i32, ptr %3, align 4, !tbaa !57
  %21 = and i32 %20, 16
  %22 = icmp ne i32 %21, 0
  %23 = select i1 %22, ptr @.str.18, ptr @.str.19
  call void (ptr, i32, ptr, ...) @php_error_docref(ptr noundef @.str, i32 noundef 8, ptr noundef @.str.17, ptr noundef %19, ptr noundef %23)
  br label %24

24:                                               ; preds = %15, %11
  store i32 0, ptr %2, align 4
  store i32 1, ptr %7, align 4
  br label %110

25:                                               ; preds = %1
  %26 = load i32, ptr %3, align 4, !tbaa !57
  %27 = and i32 %26, 1
  %28 = icmp ne i32 %27, 0
  br i1 %28, label %53, label %29

29:                                               ; preds = %25
  %30 = load ptr, ptr %6, align 8, !tbaa !55
  %31 = getelementptr inbounds nuw %struct._php_output_handler, ptr %30, i32 0, i32 1
  %32 = load i32, ptr %31, align 8, !tbaa !65
  %33 = and i32 %32, 64
  %34 = icmp ne i32 %33, 0
  br i1 %34, label %53, label %35

35:                                               ; preds = %29
  %36 = load i32, ptr %3, align 4, !tbaa !57
  %37 = and i32 %36, 256
  %38 = icmp ne i32 %37, 0
  br i1 %38, label %52, label %39

39:                                               ; preds = %35
  %40 = load i32, ptr %3, align 4, !tbaa !57
  %41 = and i32 %40, 16
  %42 = icmp ne i32 %41, 0
  %43 = select i1 %42, ptr @.str.18, ptr @.str.19
  %44 = load ptr, ptr %6, align 8, !tbaa !55
  %45 = getelementptr inbounds nuw %struct._php_output_handler, ptr %44, i32 0, i32 0
  %46 = load ptr, ptr %45, align 8, !tbaa !82
  %47 = getelementptr inbounds nuw %struct._zend_string, ptr %46, i32 0, i32 3
  %48 = getelementptr inbounds [1 x i8], ptr %47, i64 0, i64 0
  %49 = load ptr, ptr %6, align 8, !tbaa !55
  %50 = getelementptr inbounds nuw %struct._php_output_handler, ptr %49, i32 0, i32 2
  %51 = load i32, ptr %50, align 4, !tbaa !83
  call void (ptr, i32, ptr, ...) @php_error_docref(ptr noundef @.str, i32 noundef 8, ptr noundef @.str.20, ptr noundef %43, ptr noundef %48, i32 noundef %51)
  br label %52

52:                                               ; preds = %39, %35
  store i32 0, ptr %2, align 4
  store i32 1, ptr %7, align 4
  br label %110

53:                                               ; preds = %29, %25
  call void @php_output_context_init(ptr noundef %4, i32 noundef 8)
  %54 = load ptr, ptr %6, align 8, !tbaa !55
  %55 = getelementptr inbounds nuw %struct._php_output_handler, ptr %54, i32 0, i32 1
  %56 = load i32, ptr %55, align 8, !tbaa !65
  %57 = and i32 %56, 8192
  %58 = icmp ne i32 %57, 0
  br i1 %58, label %80, label %59

59:                                               ; preds = %53
  %60 = load ptr, ptr %6, align 8, !tbaa !55
  %61 = getelementptr inbounds nuw %struct._php_output_handler, ptr %60, i32 0, i32 1
  %62 = load i32, ptr %61, align 8, !tbaa !65
  %63 = and i32 %62, 4096
  %64 = icmp ne i32 %63, 0
  br i1 %64, label %69, label %65

65:                                               ; preds = %59
  %66 = getelementptr inbounds nuw %struct._php_output_context, ptr %4, i32 0, i32 0
  %67 = load i32, ptr %66, align 8, !tbaa !71
  %68 = or i32 %67, 1
  store i32 %68, ptr %66, align 8, !tbaa !71
  br label %69

69:                                               ; preds = %65, %59
  %70 = load i32, ptr %3, align 4, !tbaa !57
  %71 = and i32 %70, 16
  %72 = icmp ne i32 %71, 0
  br i1 %72, label %73, label %77

73:                                               ; preds = %69
  %74 = getelementptr inbounds nuw %struct._php_output_context, ptr %4, i32 0, i32 0
  %75 = load i32, ptr %74, align 8, !tbaa !71
  %76 = or i32 %75, 2
  store i32 %76, ptr %74, align 8, !tbaa !71
  br label %77

77:                                               ; preds = %73, %69
  %78 = load ptr, ptr %6, align 8, !tbaa !55
  %79 = call i32 @php_output_handler_op(ptr noundef %78, ptr noundef %4)
  br label %80

80:                                               ; preds = %77, %53
  call void @zend_stack_del_top(ptr noundef @output_globals)
  %81 = call ptr @zend_stack_top(ptr noundef @output_globals)
  store ptr %81, ptr %5, align 8, !tbaa !27
  %82 = icmp ne ptr %81, null
  br i1 %82, label %83, label %86

83:                                               ; preds = %80
  %84 = load ptr, ptr %5, align 8, !tbaa !27
  %85 = load ptr, ptr %84, align 8, !tbaa !55
  store ptr %85, ptr getelementptr inbounds nuw (%struct._zend_output_globals, ptr @output_globals, i32 0, i32 1), align 8, !tbaa !29
  br label %87

86:                                               ; preds = %80
  store ptr null, ptr getelementptr inbounds nuw (%struct._zend_output_globals, ptr @output_globals, i32 0, i32 1), align 8, !tbaa !29
  br label %87

87:                                               ; preds = %86, %83
  %88 = getelementptr inbounds nuw %struct._php_output_context, ptr %4, i32 0, i32 2
  %89 = getelementptr inbounds nuw %struct._php_output_buffer, ptr %88, i32 0, i32 0
  %90 = load ptr, ptr %89, align 8, !tbaa !67
  %91 = icmp ne ptr %90, null
  br i1 %91, label %92, label %109

92:                                               ; preds = %87
  %93 = getelementptr inbounds nuw %struct._php_output_context, ptr %4, i32 0, i32 2
  %94 = getelementptr inbounds nuw %struct._php_output_buffer, ptr %93, i32 0, i32 2
  %95 = load i64, ptr %94, align 8, !tbaa !68
  %96 = icmp ne i64 %95, 0
  br i1 %96, label %97, label %109

97:                                               ; preds = %92
  %98 = load i32, ptr %3, align 4, !tbaa !57
  %99 = and i32 %98, 16
  %100 = icmp ne i32 %99, 0
  br i1 %100, label %109, label %101

101:                                              ; preds = %97
  %102 = getelementptr inbounds nuw %struct._php_output_context, ptr %4, i32 0, i32 2
  %103 = getelementptr inbounds nuw %struct._php_output_buffer, ptr %102, i32 0, i32 0
  %104 = load ptr, ptr %103, align 8, !tbaa !67
  %105 = getelementptr inbounds nuw %struct._php_output_context, ptr %4, i32 0, i32 2
  %106 = getelementptr inbounds nuw %struct._php_output_buffer, ptr %105, i32 0, i32 2
  %107 = load i64, ptr %106, align 8, !tbaa !68
  %108 = call i64 @php_output_write(ptr noundef %104, i64 noundef %107)
  br label %109

109:                                              ; preds = %101, %97, %92, %87
  call void @php_output_handler_free(ptr noundef %6)
  call void @php_output_context_dtor(ptr noundef %4)
  store i32 1, ptr %2, align 4
  store i32 1, ptr %7, align 4
  br label %110

110:                                              ; preds = %109, %52, %24
  call void @llvm.lifetime.end.p0(i64 8, ptr %6) #15
  call void @llvm.lifetime.end.p0(i64 8, ptr %5) #15
  call void @llvm.lifetime.end.p0(i64 72, ptr %4) #15
  %111 = load i32, ptr %2, align 4
  ret i32 %111
}