; Function Attrs: nounwind uwtable
define internal fastcc range(i32 0, 2) i32 @php_output_stack_pop(i32 noundef range(i32 0, 18) %0) unnamed_addr #0 {
  %2 = alloca %struct._php_output_context, align 8
  call void @llvm.lifetime.start.p0(i64 72, ptr nonnull %2) #22
  %3 = load ptr, ptr getelementptr inbounds nuw (i8, ptr @output_globals, i64 24), align 8, !tbaa !46
  %.not = icmp eq ptr %3, null
  br i1 %.not, label %4, label %6

4:                                                ; preds = %1
  %.not16 = icmp samesign ult i32 %0, 16
  %5 = select i1 %.not16, ptr @.str.19, ptr @.str.18
  tail call void (ptr, i32, ptr, ...) @php_error_docref(ptr noundef nonnull @.str, i32 noundef 8, ptr noundef nonnull @.str.17, ptr noundef nonnull %5, ptr noundef nonnull %5) #22
  br label %php_output_context_dtor.exit

6:                                                ; preds = %1
  %7 = and i32 %0, 1
  %.not17 = icmp eq i32 %7, 0
  %8 = getelementptr inbounds nuw i8, ptr %3, i64 8
  %9 = load i32, ptr %8, align 8, !tbaa !54
  %10 = and i32 %9, 64
  %.not18 = icmp eq i32 %10, 0
  %or.cond31 = select i1 %.not17, i1 %.not18, i1 false
  br i1 %or.cond31, label %11, label %._crit_edge

11:                                               ; preds = %6
  %.not19 = icmp samesign ult i32 %0, 16
  %12 = select i1 %.not19, ptr @.str.19, ptr @.str.18
  %13 = load ptr, ptr %3, align 8, !tbaa !78
  %14 = getelementptr inbounds nuw i8, ptr %13, i64 24
  %15 = getelementptr inbounds nuw i8, ptr %3, i64 12
  %16 = load i32, ptr %15, align 4, !tbaa !79
  tail call void (ptr, i32, ptr, ...) @php_error_docref(ptr noundef nonnull @.str, i32 noundef 8, ptr noundef nonnull @.str.20, ptr noundef nonnull %12, ptr noundef nonnull %14, i32 noundef %16) #22
  br label %php_output_context_dtor.exit

._crit_edge:                                      ; preds = %6
  call void @llvm.memset.p0.i64(ptr noundef nonnull align 8 dereferenceable(72) %2, i8 0, i64 72, i1 false)
  store i32 8, ptr %2, align 8, !tbaa !49
  %17 = and i32 %9, 8192
  %.not20 = icmp eq i32 %17, 0
  br i1 %.not20, label %18, label %25

18:                                               ; preds = %._crit_edge
  %19 = and i32 %9, 4096
  %.not21.not = icmp eq i32 %19, 0
  %.not22 = icmp samesign ugt i32 %0, 15
  %20 = or i1 %.not21.not, %.not22
  br i1 %20, label %21, label %23

21:                                               ; preds = %18
  %22 = select i1 %.not21.not, i32 11, i32 10
  %simplifycfg.merge = select i1 %.not22, i32 %22, i32 9
  store i32 %simplifycfg.merge, ptr %2, align 8, !tbaa !49
  br label %23

23:                                               ; preds = %18, %21
  %24 = call fastcc i32 @php_output_handler_op(ptr noundef nonnull %3, ptr noundef nonnull %2)
  br label %25

25:                                               ; preds = %23, %._crit_edge
  call void @zend_stack_del_top(ptr noundef nonnull @output_globals) #22
  %26 = call ptr @zend_stack_top(ptr noundef nonnull @output_globals) #22
  %.not23 = icmp eq ptr %26, null
  br i1 %.not23, label %29, label %27

27:                                               ; preds = %25
  %28 = load ptr, ptr %26, align 8, !tbaa !18
  br label %29

29:                                               ; preds = %25, %27
  %storemerge = phi ptr [ %28, %27 ], [ null, %25 ]
  store ptr %storemerge, ptr getelementptr inbounds nuw (i8, ptr @output_globals, i64 24), align 8, !tbaa !46
  %30 = getelementptr inbounds nuw i8, ptr %2, i64 40
  %31 = load ptr, ptr %30, align 8, !tbaa !56
  %32 = icmp ne ptr %31, null
  %33 = getelementptr inbounds nuw i8, ptr %2, i64 56
  %34 = load i64, ptr %33, align 8
  %35 = icmp ne i64 %34, 0
  %or.cond = select i1 %32, i1 %35, i1 false
  %.not24 = icmp samesign ult i32 %0, 16
  %or.cond25 = select i1 %or.cond, i1 %.not24, i1 false
  br i1 %or.cond25, label %36, label %php_output_handler_free.exit

36:                                               ; preds = %29
  %37 = load i32, ptr getelementptr inbounds nuw (i8, ptr @output_globals, i64 52), align 4, !tbaa !11
  %38 = and i32 %37, 1048576
  %.not.i = icmp eq i32 %38, 0
  br i1 %.not.i, label %40, label %39

39:                                               ; preds = %36
  call fastcc void @php_output_op(i32 noundef 0, ptr noundef nonnull %31, i64 noundef %34)
  br label %php_output_handler_free.exit

40:                                               ; preds = %36
  %41 = and i32 %37, 2
  %.not5.i = icmp eq i32 %41, 0
  br i1 %.not5.i, label %42, label %php_output_handler_free.exit

42:                                               ; preds = %40
  %43 = load ptr, ptr @php_output_direct, align 8, !tbaa !4
  %44 = call i64 %43(ptr noundef nonnull %31, i64 noundef %34) #22, !callees !48
  br label %php_output_handler_free.exit

php_output_handler_free.exit:                     ; preds = %42, %40, %39, %29
  call void @php_output_handler_dtor(ptr noundef nonnull %3)
  call void @_efree(ptr noundef nonnull %3) #22
  %45 = getelementptr inbounds nuw i8, ptr %2, i64 8
  %46 = getelementptr inbounds nuw i8, ptr %2, i64 32
  %47 = load i32, ptr %46, align 8
  %48 = and i32 %47, 1
  %.not.i27 = icmp eq i32 %48, 0
  br i1 %.not.i27, label %52, label %49

49:                                               ; preds = %php_output_handler_free.exit
  %50 = load ptr, ptr %45, align 8, !tbaa !52
  %.not9.i = icmp eq ptr %50, null
  br i1 %.not9.i, label %52, label %51

51:                                               ; preds = %49
  call void @_efree(ptr noundef nonnull %50) #22
  store ptr null, ptr %45, align 8, !tbaa !52
  br label %52

52:                                               ; preds = %51, %49, %php_output_handler_free.exit
  %53 = getelementptr inbounds nuw i8, ptr %2, i64 64
  %54 = load i32, ptr %53, align 8
  %55 = and i32 %54, 1
  %.not10.i = icmp eq i32 %55, 0
  br i1 %.not10.i, label %php_output_context_dtor.exit, label %56

56:                                               ; preds = %52
  %57 = load ptr, ptr %30, align 8, !tbaa !56
  %.not11.i = icmp eq ptr %57, null
  br i1 %.not11.i, label %php_output_context_dtor.exit, label %58

58:                                               ; preds = %56
  call void @_efree(ptr noundef nonnull %57) #22
  br label %php_output_context_dtor.exit

php_output_context_dtor.exit:                     ; preds = %58, %56, %52, %11, %4
  %.0 = phi i32 [ 0, %11 ], [ 0, %4 ], [ 1, %52 ], [ 1, %56 ], [ 1, %58 ]
  call void @llvm.lifetime.end.p0(i64 72, ptr nonnull %2) #22
  ret i32 %.0
}